target datalayout = "e-m:e-p270:32:32-p271:32:32-p272:64:64-i64:64-i128:128-f80:128-n8:16:32:64-S128"
target triple = "x86_64-pc-linux-gnu"

%struct.mbedtls_pk_info_t = type { i32, ptr, ptr, ptr, ptr, ptr, ptr, ptr, ptr, ptr, ptr, ptr }
%struct.mbedtls_pk_context = type { ptr, ptr }

; Function Attrs: nounwind uwtable
define hidden i32 @mbedtls_pk_check_pair(ptr noundef %0, ptr noundef %1, ptr noundef %2, ptr noundef %3) #0 {
  %5 = alloca i32, align 4
  %6 = alloca ptr, align 8
  %7 = alloca ptr, align 8
  %8 = alloca ptr, align 8
  %9 = alloca ptr, align 8
  store ptr %0, ptr %6, align 8, !tbaa !3
  store ptr %1, ptr %7, align 8, !tbaa !3
  store ptr %2, ptr %8, align 8, !tbaa !19
  store ptr %3, ptr %9, align 8, !tbaa !19
  %10 = load ptr, ptr %6, align 8, !tbaa !3
  %11 = getelementptr inbounds nuw %struct.mbedtls_pk_context, ptr %10, i32 0, i32 0
  %12 = load ptr, ptr %11, align 8, !tbaa !8
  %13 = icmp eq ptr %12, null
  br i1 %13, label %19, label %14

14:                                               ; preds = %4
  %15 = load ptr, ptr %7, align 8, !tbaa !3
  %16 = getelementptr inbounds nuw %struct.mbedtls_pk_context, ptr %15, i32 0, i32 0
  %17 = load ptr, ptr %16, align 8, !tbaa !8
  %18 = icmp eq ptr %17, null
  br i1 %18, label %19, label %20

19:                                               ; preds = %14, %4
  store i32 -16000, ptr %5, align 4
  br label %76

20:                                               ; preds = %14
  %21 = load ptr, ptr %8, align 8, !tbaa !19
  %22 = icmp eq ptr %21, null
  br i1 %22, label %23, label %24

23:                                               ; preds = %20
  store i32 -16000, ptr %5, align 4
  br label %76

24:                                               ; preds = %20
  %25 = load ptr, ptr %7, align 8, !tbaa !3
  %26 = getelementptr inbounds nuw %struct.mbedtls_pk_context, ptr %25, i32 0, i32 0
  %27 = load ptr, ptr %26, align 8, !tbaa !8
  %28 = getelementptr inbounds nuw %struct.mbedtls_pk_info_t, ptr %27, i32 0, i32 8
  %29 = load ptr, ptr %28, align 8, !tbaa !69
  %30 = icmp eq ptr %29, null
  br i1 %30, label %31, label %32

31:                                               ; preds = %24
  store i32 -14720, ptr %5, align 4
  br label %76

32:                                               ; preds = %24
  %33 = load ptr, ptr %7, align 8, !tbaa !3
  %34 = getelementptr inbounds nuw %struct.mbedtls_pk_context, ptr %33, i32 0, i32 0
  %35 = load ptr, ptr %34, align 8, !tbaa !8
  %36 = getelementptr inbounds nuw %struct.mbedtls_pk_info_t, ptr %35, i32 0, i32 0
  %37 = load i32, ptr %36, align 8, !tbaa !44
  %38 = icmp eq i32 %37, 5
  br i1 %38, label %39, label %48

39:                                               ; preds = %32
  %40 = load ptr, ptr %6, align 8, !tbaa !3
  %41 = getelementptr inbounds nuw %struct.mbedtls_pk_context, ptr %40, i32 0, i32 0
  %42 = load ptr, ptr %41, align 8, !tbaa !8
  %43 = getelementptr inbounds nuw %struct.mbedtls_pk_info_t, ptr %42, i32 0, i32 0
  %44 = load i32, ptr %43, align 8, !tbaa !44
  %45 = icmp ne i32 %44, 1
  br i1 %45, label %46, label %47

46:                                               ; preds = %39
  store i32 -16128, ptr %5, align 4
  br label %76

47:                                               ; preds = %39
  br label %65

48:                                               ; preds = %32
  %49 = load ptr, ptr %7, align 8, !tbaa !3
  %50 = getelementptr inbounds nuw %struct.mbedtls_pk_context, ptr %49, i32 0, i32 0
  %51 = load ptr, ptr %50, align 8, !tbaa !8
  %52 = getelementptr inbounds nuw %struct.mbedtls_pk_info_t, ptr %51, i32 0, i32 0
  %53 = load i32, ptr %52, align 8, !tbaa !44
  %54 = icmp ne i32 %53, 7
  br i1 %54, label %55, label %64

55:                                               ; preds = %48
  %56 = load ptr, ptr %6, align 8, !tbaa !3
  %57 = getelementptr inbounds nuw %struct.mbedtls_pk_context, ptr %56, i32 0, i32 0
  %58 = load ptr, ptr %57, align 8, !tbaa !8
  %59 = load ptr, ptr %7, align 8, !tbaa !3
  %60 = getelementptr inbounds nuw %struct.mbedtls_pk_context, ptr %59, i32 0, i32 0
  %61 = load ptr, ptr %60, align 8, !tbaa !8
  %62 = icmp ne ptr %58, %61
  br i1 %62, label %63, label %64

63:                                               ; preds = %55
  store i32 -16128, ptr %5, align 4
  br label %76

64:                                               ; preds = %55, %48
  br label %65

65:                                               ; preds = %64, %47
  %66 = load ptr, ptr %7, align 8, !tbaa !3
  %67 = getelementptr inbounds nuw %struct.mbedtls_pk_context, ptr %66, i32 0, i32 0
  %68 = load ptr, ptr %67, align 8, !tbaa !8
  %69 = getelementptr inbounds nuw %struct.mbedtls_pk_info_t, ptr %68, i32 0, i32 8
  %70 = load ptr, ptr %69, align 8, !tbaa !69
  %71 = load ptr, ptr %6, align 8, !tbaa !3
  %72 = load ptr, ptr %7, align 8, !tbaa !3
  %73 = load ptr, ptr %8, align 8, !tbaa !19
  %74 = load ptr, ptr %9, align 8, !tbaa !19
  %75 = call i32 %70(ptr noundef %71, ptr noundef %72, ptr noundef %73, ptr noundef %74)
  store i32 %75, ptr %5, align 4
  br label %76

76:                                               ; preds = %65, %63, %46, %31, %23, %19
  %77 = load i32, ptr %5, align 4
  ret i32 %77
}