; Function Attrs: nounwind uwtable
define hidden i32 @mbedtls_pk_check_pair(ptr noundef %0, ptr noundef %1, ptr noundef %2, ptr noundef %3) local_unnamed_addr #1 {
  %5 = load ptr, ptr %0, align 8, !tbaa !3
  %6 = icmp eq ptr %5, null
  br i1 %6, label %22, label %7

7:                                                ; preds = %4
  %8 = load ptr, ptr %1, align 8, !tbaa !3
  %9 = icmp eq ptr %8, null
  %10 = icmp eq ptr %2, null
  %or.cond = or i1 %10, %9
  br i1 %or.cond, label %22, label %11

11:                                               ; preds = %7
  %12 = getelementptr inbounds nuw i8, ptr %8, i64 64
  %13 = load ptr, ptr %12, align 8, !tbaa !52
  %14 = icmp eq ptr %13, null
  br i1 %14, label %22, label %15

15:                                               ; preds = %11
  %16 = load i32, ptr %8, align 8, !tbaa !21
  switch i32 %16, label %19 [
    i32 5, label %17
    i32 7, label %20
  ]

17:                                               ; preds = %15
  %18 = load i32, ptr %5, align 8, !tbaa !21
  %.not19 = icmp eq i32 %18, 1
  br i1 %.not19, label %20, label %22

19:                                               ; preds = %15
  %.not18 = icmp eq ptr %5, %8
  br i1 %.not18, label %20, label %22

20:                                               ; preds = %15, %19, %17
  %21 = tail call i32 %13(ptr noundef nonnull %0, ptr noundef nonnull %1, ptr noundef nonnull %2, ptr noundef %3) #7
  br label %22

22:                                               ; preds = %19, %17, %11, %4, %7, %20
  %.0 = phi i32 [ %21, %20 ], [ -16000, %7 ], [ -16000, %4 ], [ -14720, %11 ], [ -16128, %17 ], [ -16128, %19 ]
  ret i32 %.0
}